target datalayout = "e-m:e-p270:32:32-p271:32:32-p272:64:64-i64:64-i128:128-f80:128-n8:16:32:64-S128"
target triple = "x86_64-pc-linux-gnu"

%struct._tvbparse_wanted_t = type { i32, ptr, %union.anon, i32, i32, i32, ptr, ptr, ptr }
%union.anon = type { %struct.anon.2 }
%struct.anon.2 = type { ptr, ptr, ptr }
%struct._tvbparse_t = type { ptr, ptr, i32, i32, ptr, ptr, i32 }

; Function Attrs: null_pointer_is_valid sspstrong uwtable
define ptr @tvbparse_find(ptr noundef %0, ptr noundef %1) #0 {
  %3 = alloca ptr, align 8
  %4 = alloca ptr, align 8
  %5 = alloca ptr, align 8
  %6 = alloca ptr, align 8
  %7 = alloca i32, align 4
  %8 = alloca i32, align 4
  %9 = alloca i32, align 4
  %10 = alloca i32, align 4
  store ptr %0, ptr %4, align 8
  store ptr %1, ptr %5, align 8
  call void @llvm.lifetime.start.p0(i64 8, ptr %6) #11
  store ptr null, ptr %6, align 8
  call void @llvm.lifetime.start.p0(i64 4, ptr %7) #11
  store i32 0, ptr %7, align 4
  call void @llvm.lifetime.start.p0(i64 4, ptr %8) #11
  %11 = load ptr, ptr %4, align 8
  %12 = getelementptr inbounds nuw %struct._tvbparse_t, ptr %11, i32 0, i32 2
  %13 = load i32, ptr %12, align 8
  store i32 %13, ptr %8, align 4
  call void @llvm.lifetime.start.p0(i64 4, ptr %9) #11
  %14 = load i32, ptr %8, align 4
  %15 = sub i32 %14, 1
  store i32 %15, ptr %9, align 4
  br label %16

16:                                               ; preds = %35, %2
  %17 = load ptr, ptr %5, align 8
  %18 = getelementptr inbounds nuw %struct._tvbparse_wanted_t, ptr %17, i32 0, i32 1
  %19 = load ptr, ptr %18, align 8
  %20 = load ptr, ptr %4, align 8
  %21 = load i32, ptr %9, align 4
  %22 = add i32 %21, 1
  %23 = load ptr, ptr %5, align 8
  %24 = call i32 %19(ptr noundef %20, i32 noundef %22, ptr noundef %23, ptr noundef %6)
  store i32 %24, ptr %7, align 4
  br label %25

25:                                               ; preds = %16
  %26 = load i32, ptr %7, align 4
  %27 = icmp slt i32 %26, 0
  br i1 %27, label %28, label %35

28:                                               ; preds = %25
  %29 = load i32, ptr %9, align 4
  %30 = add i32 %29, 1
  store i32 %30, ptr %9, align 4
  %31 = load ptr, ptr %4, align 8
  %32 = getelementptr inbounds nuw %struct._tvbparse_t, ptr %31, i32 0, i32 3
  %33 = load i32, ptr %32, align 4
  %34 = icmp slt i32 %30, %33
  br label %35

35:                                               ; preds = %28, %25
  %36 = phi i1 [ false, %25 ], [ %34, %28 ]
  br i1 %36, label %16, label %37, !llvm.loop !25

37:                                               ; preds = %35
  %38 = load i32, ptr %7, align 4
  %39 = icmp sge i32 %38, 0
  br i1 %39, label %40, label %49

40:                                               ; preds = %37
  %41 = load ptr, ptr %4, align 8
  %42 = load ptr, ptr %6, align 8
  call void @execute_callbacks(ptr noundef %41, ptr noundef %42)
  %43 = load i32, ptr %9, align 4
  %44 = load i32, ptr %7, align 4
  %45 = add i32 %43, %44
  %46 = load ptr, ptr %4, align 8
  %47 = getelementptr inbounds nuw %struct._tvbparse_t, ptr %46, i32 0, i32 2
  store i32 %45, ptr %47, align 8
  %48 = load ptr, ptr %6, align 8
  store ptr %48, ptr %3, align 8
  store i32 1, ptr %10, align 4
  br label %50

49:                                               ; preds = %37
  store ptr null, ptr %3, align 8
  store i32 1, ptr %10, align 4
  br label %50

50:                                               ; preds = %49, %40
  call void @llvm.lifetime.end.p0(i64 4, ptr %9) #11
  call void @llvm.lifetime.end.p0(i64 4, ptr %8) #11
  call void @llvm.lifetime.end.p0(i64 4, ptr %7) #11
  call void @llvm.lifetime.end.p0(i64 8, ptr %6) #11
  %51 = load ptr, ptr %3, align 8
  ret ptr %51
}