; Function Attrs: null_pointer_is_valid sspstrong uwtable
define ptr @tvbparse_find(ptr noundef %0, ptr noundef %1) local_unnamed_addr #0 {
  %3 = alloca ptr, align 8
  call void @llvm.lifetime.start.p0(i64 8, ptr nonnull %3) #12
  store ptr null, ptr %3, align 8
  %4 = getelementptr inbounds nuw i8, ptr %0, i64 16
  %5 = load i32, ptr %4, align 8
  %6 = add i32 %5, -1
  %7 = getelementptr inbounds nuw i8, ptr %1, i64 8
  %8 = getelementptr inbounds nuw i8, ptr %0, i64 20
  br label %9

9:                                                ; preds = %14, %2
  %.0 = phi i32 [ %6, %2 ], [ %11, %14 ]
  %10 = load ptr, ptr %7, align 8
  %11 = add i32 %.0, 1
  %12 = call i32 %10(ptr noundef %0, i32 noundef %11, ptr noundef %1, ptr noundef nonnull %3)
  %13 = icmp slt i32 %12, 0
  br i1 %13, label %14, label %17

14:                                               ; preds = %9
  %15 = load i32, ptr %8, align 4
  %16 = icmp slt i32 %11, %15
  br i1 %16, label %9, label %.critedge, !llvm.loop !21

17:                                               ; preds = %9
  %18 = load ptr, ptr %3, align 8
  call fastcc void @execute_callbacks(ptr noundef %0, ptr noundef %18)
  %19 = add i32 %12, %.0
  store i32 %19, ptr %4, align 8
  %20 = load ptr, ptr %3, align 8
  br label %.critedge

.critedge:                                        ; preds = %14, %17
  %.014 = phi ptr [ %20, %17 ], [ null, %14 ]
  call void @llvm.lifetime.end.p0(i64 8, ptr nonnull %3) #12
  ret ptr %.014
}